target datalayout = "e-m:e-p270:32:32-p271:32:32-p272:64:64-i64:64-i128:128-f80:128-n8:16:32:64-S128"
target triple = "x86_64-pc-linux-gnu"

%struct.AVFormatContext = type { ptr, ptr, ptr, ptr, ptr, i32, i32, ptr, i32, ptr, i32, ptr, ptr, i64, i64, i64, i32, i32, i32, i64, i64, ptr, i32, i32, ptr, i32, i32, i32, i32, ptr, i64, i32, i32, %struct.AVIOInterruptCB, i32, i32, i32, i32, i64, i32, i32, i32, i32, i32, i32, i32, i32, i32, i32, i32, i32, i64, i32, i32, i32, i32, i32, ptr, ptr, ptr, ptr, i32, ptr, ptr, ptr, ptr, i32, ptr, ptr, i64, ptr, ptr, ptr, i64 }
%struct.AVIOInterruptCB = type { ptr, ptr }
%struct.NUTContext = type { ptr, ptr, [256 x %struct.FrameCode], [128 x i8], [128 x ptr], i64, ptr, ptr, i32, i32, i64, i64, i32, ptr, ptr, i32, i32, i64, ptr, i32, i32, i32 }
%struct.FrameCode = type { i16, i8, i16, i16, i16, i8, i8 }

@.str.5 = private unnamed_addr constant [30 x i8] c"Assertion %s failed at %s:%d\0A\00", align 1
@.str.7 = private unnamed_addr constant [21 x i8] c"libavformat/nutdec.c\00", align 1
@.str.66 = private unnamed_addr constant [30 x i8] c"read_timestamp(X,%d,%ld,%ld)\0A\00", align 1
@.str.67 = private unnamed_addr constant [24 x i8] c"read_timestamp failed.\0A\00", align 1
@.str.68 = private unnamed_addr constant [36 x i8] c"nut->last_syncpoint_pos == *pos_arg\00", align 1
@.str.69 = private unnamed_addr constant [16 x i8] c"return %ld %ld\0A\00", align 1
@.str.70 = private unnamed_addr constant [19 x i8] c"stream_index == -1\00", align 1

; Function Attrs: nounwind uwtable
define internal i64 @nut_read_timestamp(ptr noundef %0, i32 noundef %1, ptr noundef %2, i64 noundef %3) #0 {
  %5 = alloca i64, align 8
  %6 = alloca ptr, align 8
  %7 = alloca i32, align 4
  %8 = alloca ptr, align 8
  %9 = alloca i64, align 8
  %10 = alloca ptr, align 8
  %11 = alloca ptr, align 8
  %12 = alloca i64, align 8
  %13 = alloca i64, align 8
  %14 = alloca i64, align 8
  %15 = alloca i32, align 4
  store ptr %0, ptr %6, align 8, !tbaa !18
  store i32 %1, ptr %7, align 4, !tbaa !9
  store ptr %2, ptr %8, align 8, !tbaa !156
  store i64 %3, ptr %9, align 8, !tbaa !45
  call void @llvm.lifetime.start.p0(i64 8, ptr %10) #12
  %16 = load ptr, ptr %6, align 8, !tbaa !18
  %17 = getelementptr inbounds nuw %struct.AVFormatContext, ptr %16, i32 0, i32 3
  %18 = load ptr, ptr %17, align 8, !tbaa !20
  store ptr %18, ptr %10, align 8, !tbaa !35
  call void @llvm.lifetime.start.p0(i64 8, ptr %11) #12
  %19 = load ptr, ptr %6, align 8, !tbaa !18
  %20 = getelementptr inbounds nuw %struct.AVFormatContext, ptr %19, i32 0, i32 4
  %21 = load ptr, ptr %20, align 8, !tbaa !37
  store ptr %21, ptr %11, align 8, !tbaa !38
  call void @llvm.lifetime.start.p0(i64 8, ptr %12) #12
  call void @llvm.lifetime.start.p0(i64 8, ptr %13) #12
  call void @llvm.lifetime.start.p0(i64 8, ptr %14) #12
  %22 = load ptr, ptr %6, align 8, !tbaa !18
  %23 = load i32, ptr %7, align 4, !tbaa !9
  %24 = load ptr, ptr %8, align 8, !tbaa !156
  %25 = load i64, ptr %24, align 8, !tbaa !45
  %26 = load i64, ptr %9, align 8, !tbaa !45
  call void (ptr, i32, ptr, ...) @av_log(ptr noundef %22, i32 noundef 48, ptr noundef @.str.66, i32 noundef %23, i64 noundef %25, i64 noundef %26)
  %27 = load ptr, ptr %8, align 8, !tbaa !156
  %28 = load i64, ptr %27, align 8, !tbaa !45
  store i64 %28, ptr %12, align 8, !tbaa !45
  br label %29

29:                                               ; preds = %39, %4
  %30 = load ptr, ptr %11, align 8, !tbaa !38
  %31 = load i64, ptr %12, align 8, !tbaa !45
  %32 = call i64 @find_startcode(ptr noundef %30, i64 noundef 5641854393898386793, i64 noundef %31)
  %33 = add nsw i64 %32, 1
  store i64 %33, ptr %12, align 8, !tbaa !45
  %34 = load i64, ptr %12, align 8, !tbaa !45
  %35 = icmp slt i64 %34, 1
  br i1 %35, label %36, label %38

36:                                               ; preds = %29
  %37 = load ptr, ptr %6, align 8, !tbaa !18
  call void (ptr, i32, ptr, ...) @av_log(ptr noundef %37, i32 noundef 16, ptr noundef @.str.67)
  store i64 -9223372036854775808, ptr %5, align 8
  store i32 1, ptr %15, align 4
  br label %74

38:                                               ; preds = %29
  br label %39

39:                                               ; preds = %38
  %40 = load ptr, ptr %10, align 8, !tbaa !35
  %41 = call i32 @decode_syncpoint(ptr noundef %40, ptr noundef %13, ptr noundef %14)
  %42 = icmp slt i32 %41, 0
  br i1 %42, label %29, label %43, !llvm.loop !172

43:                                               ; preds = %39
  %44 = load i64, ptr %12, align 8, !tbaa !45
  %45 = sub nsw i64 %44, 1
  %46 = load ptr, ptr %8, align 8, !tbaa !156
  store i64 %45, ptr %46, align 8, !tbaa !45
  br label %47

47:                                               ; preds = %43
  %48 = load ptr, ptr %10, align 8, !tbaa !35
  %49 = getelementptr inbounds nuw %struct.NUTContext, ptr %48, i32 0, i32 10
  %50 = load i64, ptr %49, align 8, !tbaa !59
  %51 = load ptr, ptr %8, align 8, !tbaa !156
  %52 = load i64, ptr %51, align 8, !tbaa !45
  %53 = icmp eq i64 %50, %52
  br i1 %53, label %55, label %54

54:                                               ; preds = %47
  call void (ptr, i32, ptr, ...) @av_log(ptr noundef null, i32 noundef 0, ptr noundef @.str.5, ptr noundef @.str.68, ptr noundef @.str.7, i32 noundef 1222)
  call void @abort() #14
  unreachable

55:                                               ; preds = %47
  br label %56

56:                                               ; preds = %55
  br label %57

57:                                               ; preds = %56
  %58 = load ptr, ptr %6, align 8, !tbaa !18
  %59 = load i64, ptr %13, align 8, !tbaa !45
  %60 = load i64, ptr %14, align 8, !tbaa !45
  call void (ptr, i32, ptr, ...) @av_log(ptr noundef %58, i32 noundef 48, ptr noundef @.str.69, i64 noundef %59, i64 noundef %60)
  %61 = load i32, ptr %7, align 4, !tbaa !9
  %62 = icmp eq i32 %61, -2
  br i1 %62, label %63, label %65

63:                                               ; preds = %57
  %64 = load i64, ptr %14, align 8, !tbaa !45
  store i64 %64, ptr %5, align 8
  store i32 1, ptr %15, align 4
  br label %74

65:                                               ; preds = %57
  br label %66

66:                                               ; preds = %65
  %67 = load i32, ptr %7, align 4, !tbaa !9
  %68 = icmp eq i32 %67, -1
  br i1 %68, label %70, label %69

69:                                               ; preds = %66
  call void (ptr, i32, ptr, ...) @av_log(ptr noundef null, i32 noundef 0, ptr noundef @.str.5, ptr noundef @.str.70, ptr noundef @.str.7, i32 noundef 1227)
  call void @abort() #14
  unreachable

70:                                               ; preds = %66
  br label %71

71:                                               ; preds = %70
  br label %72

72:                                               ; preds = %71
  %73 = load i64, ptr %13, align 8, !tbaa !45
  store i64 %73, ptr %5, align 8
  store i32 1, ptr %15, align 4
  br label %74

74:                                               ; preds = %72, %63, %36
  call void @llvm.lifetime.end.p0(i64 8, ptr %14) #12
  call void @llvm.lifetime.end.p0(i64 8, ptr %13) #12
  call void @llvm.lifetime.end.p0(i64 8, ptr %12) #12
  call void @llvm.lifetime.end.p0(i64 8, ptr %11) #12
  call void @llvm.lifetime.end.p0(i64 8, ptr %10) #12
  %75 = load i64, ptr %5, align 8
  ret i64 %75
}