; Function Attrs: nounwind uwtable
define internal noundef i64 @nut_read_timestamp(ptr noundef %0, i32 noundef %1, ptr noundef captures(none) %2, i64 noundef %3) #1 {
  %5 = alloca i64, align 8
  %6 = alloca i64, align 8
  %7 = getelementptr inbounds nuw i8, ptr %0, i64 24
  %8 = load ptr, ptr %7, align 8, !tbaa !15
  %9 = getelementptr inbounds nuw i8, ptr %0, i64 32
  %10 = load ptr, ptr %9, align 8, !tbaa !30
  call void @llvm.lifetime.start.p0(i64 8, ptr nonnull %5) #12
  call void @llvm.lifetime.start.p0(i64 8, ptr nonnull %6) #12
  %11 = load i64, ptr %2, align 8, !tbaa !110
  tail call void (ptr, i32, ptr, ...) @av_log(ptr noundef %0, i32 noundef 48, ptr noundef nonnull @.str.66, i32 noundef %1, i64 noundef %11, i64 noundef %3) #12
  %12 = load i64, ptr %2, align 8, !tbaa !110
  br label %13

13:                                               ; preds = %17, %4
  %.0 = phi i64 [ %12, %4 ], [ %18, %17 ]
  %14 = tail call fastcc i64 @find_startcode(ptr noundef %10, i64 noundef 5641854393898386793, i64 noundef %.0)
  %15 = icmp slt i64 %14, 0
  br i1 %15, label %16, label %17

16:                                               ; preds = %13
  tail call void (ptr, i32, ptr, ...) @av_log(ptr noundef %0, i32 noundef 16, ptr noundef nonnull @.str.67) #12
  br label %31

17:                                               ; preds = %13
  %18 = add nuw nsw i64 %14, 1
  %19 = call fastcc i32 @decode_syncpoint(ptr noundef %8, ptr noundef %5, ptr noundef %6)
  %20 = icmp slt i32 %19, 0
  br i1 %20, label %13, label %21, !llvm.loop !163

21:                                               ; preds = %17
  store i64 %14, ptr %2, align 8, !tbaa !110
  %22 = getelementptr inbounds nuw i8, ptr %8, i64 4272
  %23 = load i64, ptr %22, align 8, !tbaa !118
  %24 = icmp eq i64 %23, %14
  br i1 %24, label %26, label %25

25:                                               ; preds = %21
  tail call void (ptr, i32, ptr, ...) @av_log(ptr noundef null, i32 noundef 0, ptr noundef nonnull @.str.5, ptr noundef nonnull @.str.68, ptr noundef nonnull @.str.7, i32 noundef 1222) #12
  tail call void @abort() #14
  unreachable

26:                                               ; preds = %21
  %27 = load i64, ptr %5, align 8, !tbaa !110
  %28 = load i64, ptr %6, align 8, !tbaa !110
  tail call void (ptr, i32, ptr, ...) @av_log(ptr noundef %0, i32 noundef 48, ptr noundef nonnull @.str.69, i64 noundef %27, i64 noundef %28) #12
  switch i32 %1, label %29 [
    i32 -2, label %31
    i32 -1, label %30
  ]

29:                                               ; preds = %26
  tail call void (ptr, i32, ptr, ...) @av_log(ptr noundef null, i32 noundef 0, ptr noundef nonnull @.str.5, ptr noundef nonnull @.str.70, ptr noundef nonnull @.str.7, i32 noundef 1227) #12
  tail call void @abort() #14
  unreachable

30:                                               ; preds = %26
  br label %31

31:                                               ; preds = %26, %30, %16
  %.019 = phi i64 [ -9223372036854775808, %16 ], [ %27, %30 ], [ %28, %26 ]
  call void @llvm.lifetime.end.p0(i64 8, ptr nonnull %6) #12
  call void @llvm.lifetime.end.p0(i64 8, ptr nonnull %5) #12
  ret i64 %.019
}